target datalayout = "e-m:e-p270:32:32-p271:32:32-p272:64:64-i64:64-i128:128-f80:128-n8:16:32:64-S128"
target triple = "x86_64-unknown-linux-gnu"

%class.aiMatrix4x4t = type { float, float, float, float, float, float, float, float, float, float, float, float, float, float, float, float }
%struct.aiString = type { i32, [1024 x i8] }
%struct.aiNode = type { %struct.aiString, %class.aiMatrix4x4t, ptr, i32, ptr, i32, ptr, ptr }

; Function Attrs: mustprogress nounwind uwtable
define hidden void @_ZN6Assimp15ObjFileImporter23appendChildToParentNodeEP6aiNodeS2_(ptr noundef nonnull align 8 dereferenceable(136) %this, ptr noundef %pParent, ptr noundef %pChild) #0 align 2 {
entry:
  %this.addr = alloca ptr, align 8
  %pParent.addr = alloca ptr, align 8
  %pChild.addr = alloca ptr, align 8
  store ptr %this, ptr %this.addr, align 8
  store ptr %pParent, ptr %pParent.addr, align 8
  store ptr %pChild, ptr %pChild.addr, align 8
  %0 = load ptr, ptr %pParent.addr, align 8
  %1 = load ptr, ptr %pChild.addr, align 8
  %mParent = getelementptr inbounds %struct.aiNode, ptr %1, i32 0, i32 2
  store ptr %0, ptr %mParent, align 8
  %2 = load ptr, ptr %pParent.addr, align 8
  %mNumChildren = getelementptr inbounds %struct.aiNode, ptr %2, i32 0, i32 3
  %3 = load i32, ptr %mNumChildren, align 8
  %inc = add i32 %3, 1
  store i32 %inc, ptr %mNumChildren, align 8
  %4 = load ptr, ptr %pChild.addr, align 8
  %5 = load ptr, ptr %pParent.addr, align 8
  %mChildren = getelementptr inbounds %struct.aiNode, ptr %5, i32 0, i32 4
  %6 = load ptr, ptr %mChildren, align 8
  %7 = load ptr, ptr %pParent.addr, align 8
  %mNumChildren2 = getelementptr inbounds %struct.aiNode, ptr %7, i32 0, i32 3
  %8 = load i32, ptr %mNumChildren2, align 8
  %sub = sub i32 %8, 1
  %idxprom = zext i32 %sub to i64
  %arrayidx = getelementptr inbounds ptr, ptr %6, i64 %idxprom
  store ptr %4, ptr %arrayidx, align 8
  ret void
}