; Function Attrs: mustprogress nofree norecurse nosync nounwind willreturn memory(write, argmem: readwrite, inaccessiblemem: none) uwtable
define hidden void @_ZN6Assimp15ObjFileImporter23appendChildToParentNodeEP6aiNodeS2_(ptr nocapture noundef nonnull readnone align 8 dereferenceable(136) %this, ptr noundef %pParent, ptr noundef %pChild) local_unnamed_addr #10 align 2 {
entry:
  %mParent = getelementptr inbounds i8, ptr %pChild, i64 1096
  store ptr %pParent, ptr %mParent, align 8
  %mNumChildren = getelementptr inbounds i8, ptr %pParent, i64 1104
  %0 = load i32, ptr %mNumChildren, align 8
  %inc = add i32 %0, 1
  store i32 %inc, ptr %mNumChildren, align 8
  %mChildren = getelementptr inbounds i8, ptr %pParent, i64 1112
  %1 = load ptr, ptr %mChildren, align 8
  %idxprom = zext i32 %0 to i64
  %arrayidx = getelementptr inbounds ptr, ptr %1, i64 %idxprom
  store ptr %pChild, ptr %arrayidx, align 8
  ret void
}